; Function Attrs: mustprogress nounwind uwtable
define void @_ZN5RarVMD2Ev(ptr nocapture noundef nonnull readonly align 8 dereferenceable(40) %0) unnamed_addr #1 align 2 {
  %2 = load ptr, ptr %0, align 8
  %3 = icmp eq ptr %2, null
  br i1 %3, label %5, label %4

4:                                                ; preds = %1
  tail call void @_ZdaPv(ptr noundef nonnull %2) #14
  br label %5

5:                                                ; preds = %4, %1
  ret void
}